; Function Attrs: mustprogress uwtable
define void @_ZN6duckdb16ListColumnWriter7AnalyzeERNS_17ColumnWriterStateEPS1_RNS_6VectorEm(ptr noundef nonnull align 8 dereferenceable(80) %0, ptr noundef nonnull align 8 dereferenceable(112) %1, ptr readnone captures(none) %2, ptr noundef nonnull align 8 dereferenceable(104) %3, i64 %4) unnamed_addr #0 align 2 {
  %6 = tail call noundef nonnull align 8 dereferenceable(104) ptr @_ZN6duckdb10ListVector8GetEntryERNS_6VectorE(ptr noundef nonnull align 8 dereferenceable(104) %3)
  %7 = tail call noundef i64 @_ZN6duckdb10ListVector11GetListSizeERKNS_6VectorE(ptr noundef nonnull align 8 dereferenceable(104) %3)
  %8 = getelementptr inbounds nuw i8, ptr %0, i64 72
  %9 = tail call noundef ptr @_ZNK6duckdb10unique_ptrINS_12ColumnWriterESt14default_deleteIS1_ELb1EEptEv(ptr noundef nonnull align 8 dereferenceable(8) %8)
  %10 = getelementptr inbounds nuw i8, ptr %1, i64 128
  %11 = tail call noundef nonnull align 8 dereferenceable(112) ptr @_ZNK6duckdb10unique_ptrINS_17ColumnWriterStateESt14default_deleteIS1_ELb1EEdeEv(ptr noundef nonnull align 8 dereferenceable(8) %10)
  %12 = load ptr, ptr %9, align 8, !tbaa !3
  %13 = getelementptr inbounds nuw i8, ptr %12, i64 32
  %14 = load ptr, ptr %13, align 8
  tail call void %14(ptr noundef nonnull align 8 dereferenceable(65) %9, ptr noundef nonnull align 8 dereferenceable(112) %11, ptr noundef nonnull %1, ptr noundef nonnull align 8 dereferenceable(104) %6, i64 noundef %7)
  ret void
}